; ModuleID = 'source-C-CXX/11/1370.cpp'
source_filename = "source-C-CXX/11/1370.cpp"
target datalayout = "e-m:e-p270:32:32-p271:32:32-p272:64:64-i64:64-f80:128-n8:16:32:64-S128"
target triple = "x86_64-pc-linux-gnu"

%"class.std::ios_base::Init" = type { i8 }
%"class.std::basic_istream" = type { i32 (...)**, i64, %"class.std::basic_ios" }
%"class.std::basic_ios" = type { %"class.std::ios_base", %"class.std::basic_ostream"*, i8, i8, %"class.std::basic_streambuf"*, %"class.std::ctype"*, %"class.std::num_put"*, %"class.std::num_get"* }
%"class.std::ios_base" = type { i32 (...)**, i64, i64, i32, i32, i32, %"struct.std::ios_base::_Callback_list"*, %"struct.std::ios_base::_Words", [8 x %"struct.std::ios_base::_Words"], i32, %"struct.std::ios_base::_Words"*, %"class.std::locale" }
%"struct.std::ios_base::_Callback_list" = type { %"struct.std::ios_base::_Callback_list"*, void (i32, %"class.std::ios_base"*, i32)*, i32, i32 }
%"struct.std::ios_base::_Words" = type { i8*, i64 }
%"class.std::locale" = type { %"class.std::locale::_Impl"* }
%"class.std::locale::_Impl" = type { i32, %"class.std::locale::facet"**, i64, %"class.std::locale::facet"**, i8** }
%"class.std::locale::facet" = type <{ i32 (...)**, i32, [4 x i8] }>
%"class.std::basic_ostream" = type { i32 (...)**, %"class.std::basic_ios" }
%"class.std::basic_streambuf" = type { i32 (...)**, i8*, i8*, i8*, i8*, i8*, i8*, %"class.std::locale" }
%"class.std::ctype" = type <{ %"class.std::locale::facet.base", [4 x i8], %struct.__locale_struct*, i8, [7 x i8], i32*, i32*, i16*, i8, [256 x i8], [256 x i8], i8, [6 x i8] }>
%"class.std::locale::facet.base" = type <{ i32 (...)**, i32 }>
%struct.__locale_struct = type { [13 x %struct.__locale_data*], i16*, i32*, i32*, [13 x i8*] }
%struct.__locale_data = type opaque
%"class.std::num_put" = type { %"class.std::locale::facet.base", [4 x i8] }
%"class.std::num_get" = type { %"class.std::locale::facet.base", [4 x i8] }

@_ZStL8__ioinit = internal global %"class.std::ios_base::Init" zeroinitializer, align 1
@__dso_handle = external hidden global i8
@_ZSt3cin = external global %"class.std::basic_istream", align 8
@_ZSt4cout = external global %"class.std::basic_ostream", align 8
@llvm.global_ctors = appending global [1 x { i32, void ()*, i8* }] [{ i32, void ()*, i8* } { i32 65535, void ()* @_GLOBAL__sub_I_1370.cpp, i8* null }]

declare void @_ZNSt8ios_base4InitC1Ev(%"class.std::ios_base::Init"* nonnull align 1 dereferenceable(1)) unnamed_addr #0

; Function Attrs: nounwind
declare void @_ZNSt8ios_base4InitD1Ev(%"class.std::ios_base::Init"* nonnull align 1 dereferenceable(1)) unnamed_addr #1

; Function Attrs: nofree nounwind
declare i32 @__cxa_atexit(void (i8*)*, i8*, i8*) local_unnamed_addr #2

; Function Attrs: mustprogress norecurse sspstrong uwtable
define dso_local i32 @main() local_unnamed_addr #3 {
  %1 = alloca i32, align 4
  %2 = alloca [15 x i32], align 16
  %3 = bitcast i32* %1 to i8*
  call void @llvm.lifetime.start.p0i8(i64 4, i8* nonnull %3) #8
  %4 = bitcast [15 x i32]* %2 to i8*
  call void @llvm.lifetime.start.p0i8(i64 60, i8* nonnull %4) #8
  %5 = getelementptr inbounds [15 x i32], [15 x i32]* %2, i64 0, i64 0
  %6 = getelementptr inbounds [15 x i32], [15 x i32]* %2, i64 0, i64 1
  %7 = call nonnull align 8 dereferenceable(16) %"class.std::basic_istream"* @_ZNSirsERi(%"class.std::basic_istream"* nonnull align 8 dereferenceable(16) @_ZSt3cin, i32* nonnull align 4 dereferenceable(4) %1)
  %8 = bitcast %"class.std::basic_istream"* %7 to i8**
  %9 = load i8*, i8** %8, align 8, !tbaa !5
  %10 = getelementptr i8, i8* %9, i64 -24
  %11 = bitcast i8* %10 to i64*
  %12 = load i64, i64* %11, align 8
  %13 = bitcast %"class.std::basic_istream"* %7 to i8*
  %14 = add nsw i64 %12, 32
  %15 = getelementptr inbounds i8, i8* %13, i64 %14
  %16 = bitcast i8* %15 to i32*
  %17 = load i32, i32* %16, align 8, !tbaa !8
  %18 = and i32 %17, 5
  %19 = icmp eq i32 %18, 0
  br i1 %19, label %20, label %159

20:                                               ; preds = %0, %72
  %21 = load i32, i32* %1, align 4, !tbaa !18
  %22 = icmp eq i32 %21, -1
  br i1 %22, label %159, label %23

23:                                               ; preds = %20
  store i32 %21, i32* %5, align 16, !tbaa !18
  %24 = call nonnull align 8 dereferenceable(16) %"class.std::basic_istream"* @_ZNSirsERi(%"class.std::basic_istream"* nonnull align 8 dereferenceable(16) @_ZSt3cin, i32* nonnull align 4 dereferenceable(4) %6)
  %25 = load i32, i32* %6, align 4, !tbaa !18
  %26 = icmp eq i32 %25, 0
  br i1 %26, label %27, label %32

27:                                               ; preds = %32, %23
  %28 = phi i32 [ 1, %23 ], [ %35, %32 ]
  %29 = add nuw i32 %28, 1
  %30 = zext i32 %28 to i64
  %31 = zext i32 %29 to i64
  br label %89

32:                                               ; preds = %23, %32
  %33 = phi i64 [ %36, %32 ], [ 1, %23 ]
  %34 = phi i32 [ %35, %32 ], [ 1, %23 ]
  %35 = add nuw nsw i32 %34, 1
  %36 = add nuw nsw i64 %33, 1
  %37 = getelementptr inbounds [15 x i32], [15 x i32]* %2, i64 0, i64 %36
  %38 = call nonnull align 8 dereferenceable(16) %"class.std::basic_istream"* @_ZNSirsERi(%"class.std::basic_istream"* nonnull align 8 dereferenceable(16) @_ZSt3cin, i32* nonnull align 4 dereferenceable(4) %37)
  %39 = load i32, i32* %37, align 4, !tbaa !18
  %40 = icmp eq i32 %39, 0
  br i1 %40, label %27, label %32, !llvm.loop !19

41:                                               ; preds = %146, %139, %89
  %42 = phi i32 [ %92, %89 ], [ %141, %139 ], [ %156, %146 ]
  %43 = add nuw nsw i64 %91, 1
  %44 = icmp eq i64 %95, %31
  br i1 %44, label %45, label %89, !llvm.loop !21

45:                                               ; preds = %41
  %46 = call nonnull align 8 dereferenceable(8) %"class.std::basic_ostream"* @_ZNSolsEi(%"class.std::basic_ostream"* nonnull align 8 dereferenceable(8) @_ZSt4cout, i32 %42)
  %47 = bitcast %"class.std::basic_ostream"* %46 to i8**
  %48 = load i8*, i8** %47, align 8, !tbaa !5
  %49 = getelementptr i8, i8* %48, i64 -24
  %50 = bitcast i8* %49 to i64*
  %51 = load i64, i64* %50, align 8
  %52 = bitcast %"class.std::basic_ostream"* %46 to i8*
  %53 = add nsw i64 %51, 240
  %54 = getelementptr inbounds i8, i8* %52, i64 %53
  %55 = bitcast i8* %54 to %"class.std::ctype"**
  %56 = load %"class.std::ctype"*, %"class.std::ctype"** %55, align 8, !tbaa !22
  %57 = icmp eq %"class.std::ctype"* %56, null
  br i1 %57, label %58, label %59

58:                                               ; preds = %45
  call void @_ZSt16__throw_bad_castv() #9
  unreachable

59:                                               ; preds = %45
  %60 = getelementptr inbounds %"class.std::ctype", %"class.std::ctype"* %56, i64 0, i32 8
  %61 = load i8, i8* %60, align 8, !tbaa !25
  %62 = icmp eq i8 %61, 0
  br i1 %62, label %66, label %63

63:                                               ; preds = %59
  %64 = getelementptr inbounds %"class.std::ctype", %"class.std::ctype"* %56, i64 0, i32 9, i64 10
  %65 = load i8, i8* %64, align 1, !tbaa !27
  br label %72

66:                                               ; preds = %59
  call void @_ZNKSt5ctypeIcE13_M_widen_initEv(%"class.std::ctype"* nonnull align 8 dereferenceable(570) %56)
  %67 = bitcast %"class.std::ctype"* %56 to i8 (%"class.std::ctype"*, i8)***
  %68 = load i8 (%"class.std::ctype"*, i8)**, i8 (%"class.std::ctype"*, i8)*** %67, align 8, !tbaa !5
  %69 = getelementptr inbounds i8 (%"class.std::ctype"*, i8)*, i8 (%"class.std::ctype"*, i8)** %68, i64 6
  %70 = load i8 (%"class.std::ctype"*, i8)*, i8 (%"class.std::ctype"*, i8)** %69, align 8
  %71 = call signext i8 %70(%"class.std::ctype"* nonnull align 8 dereferenceable(570) %56, i8 signext 10)
  br label %72

72:                                               ; preds = %63, %66
  %73 = phi i8 [ %65, %63 ], [ %71, %66 ]
  %74 = call nonnull align 8 dereferenceable(8) %"class.std::basic_ostream"* @_ZNSo3putEc(%"class.std::basic_ostream"* nonnull align 8 dereferenceable(8) %46, i8 signext %73)
  %75 = call nonnull align 8 dereferenceable(8) %"class.std::basic_ostream"* @_ZNSo5flushEv(%"class.std::basic_ostream"* nonnull align 8 dereferenceable(8) %74)
  %76 = call nonnull align 8 dereferenceable(16) %"class.std::basic_istream"* @_ZNSirsERi(%"class.std::basic_istream"* nonnull align 8 dereferenceable(16) @_ZSt3cin, i32* nonnull align 4 dereferenceable(4) %1)
  %77 = bitcast %"class.std::basic_istream"* %76 to i8**
  %78 = load i8*, i8** %77, align 8, !tbaa !5
  %79 = getelementptr i8, i8* %78, i64 -24
  %80 = bitcast i8* %79 to i64*
  %81 = load i64, i64* %80, align 8
  %82 = bitcast %"class.std::basic_istream"* %76 to i8*
  %83 = add nsw i64 %81, 32
  %84 = getelementptr inbounds i8, i8* %82, i64 %83
  %85 = bitcast i8* %84 to i32*
  %86 = load i32, i32* %85, align 8, !tbaa !8
  %87 = and i32 %86, 5
  %88 = icmp eq i32 %87, 0
  br i1 %88, label %20, label %159, !llvm.loop !28

89:                                               ; preds = %27, %41
  %90 = phi i64 [ 0, %27 ], [ %95, %41 ]
  %91 = phi i64 [ 1, %27 ], [ %43, %41 ]
  %92 = phi i32 [ 0, %27 ], [ %42, %41 ]
  %93 = xor i64 %90, -1
  %94 = add nsw i64 %93, %31
  %95 = add nuw nsw i64 %90, 1
  %96 = icmp ult i64 %90, %30
  br i1 %96, label %97, label %41

97:                                               ; preds = %89
  %98 = getelementptr inbounds [15 x i32], [15 x i32]* %2, i64 0, i64 %90
  %99 = load i32, i32* %98, align 4, !tbaa !18
  %100 = shl nsw i32 %99, 1
  %101 = icmp ult i64 %94, 8
  br i1 %101, label %143, label %102

102:                                              ; preds = %97
  %103 = and i64 %94, -8
  %104 = add i64 %91, %103
  %105 = insertelement <4 x i32> <i32 poison, i32 0, i32 0, i32 0>, i32 %92, i32 0
  %106 = insertelement <4 x i32> poison, i32 %99, i32 0
  %107 = shufflevector <4 x i32> %106, <4 x i32> poison, <4 x i32> zeroinitializer
  %108 = insertelement <4 x i32> poison, i32 %99, i32 0
  %109 = shufflevector <4 x i32> %108, <4 x i32> poison, <4 x i32> zeroinitializer
  %110 = insertelement <4 x i32> poison, i32 %100, i32 0
  %111 = shufflevector <4 x i32> %110, <4 x i32> poison, <4 x i32> zeroinitializer
  %112 = insertelement <4 x i32> poison, i32 %100, i32 0
  %113 = shufflevector <4 x i32> %112, <4 x i32> poison, <4 x i32> zeroinitializer
  br label %114

114:                                              ; preds = %114, %102
  %115 = phi i64 [ 0, %102 ], [ %137, %114 ]
  %116 = phi <4 x i32> [ %105, %102 ], [ %135, %114 ]
  %117 = phi <4 x i32> [ zeroinitializer, %102 ], [ %136, %114 ]
  %118 = add i64 %91, %115
  %119 = getelementptr inbounds [15 x i32], [15 x i32]* %2, i64 0, i64 %118
  %120 = bitcast i32* %119 to <4 x i32>*
  %121 = load <4 x i32>, <4 x i32>* %120, align 4, !tbaa !18
  %122 = getelementptr inbounds i32, i32* %119, i64 4
  %123 = bitcast i32* %122 to <4 x i32>*
  %124 = load <4 x i32>, <4 x i32>* %123, align 4, !tbaa !18
  %125 = shl nsw <4 x i32> %121, <i32 1, i32 1, i32 1, i32 1>
  %126 = shl nsw <4 x i32> %124, <i32 1, i32 1, i32 1, i32 1>
  %127 = icmp eq <4 x i32> %107, %125
  %128 = icmp eq <4 x i32> %109, %126
  %129 = icmp eq <4 x i32> %121, %111
  %130 = icmp eq <4 x i32> %124, %113
  %131 = select <4 x i1> %127, <4 x i1> <i1 true, i1 true, i1 true, i1 true>, <4 x i1> %129
  %132 = select <4 x i1> %128, <4 x i1> <i1 true, i1 true, i1 true, i1 true>, <4 x i1> %130
  %133 = zext <4 x i1> %131 to <4 x i32>
  %134 = zext <4 x i1> %132 to <4 x i32>
  %135 = add <4 x i32> %116, %133
  %136 = add <4 x i32> %117, %134
  %137 = add nuw i64 %115, 8
  %138 = icmp eq i64 %137, %103
  br i1 %138, label %139, label %114, !llvm.loop !29

139:                                              ; preds = %114
  %140 = add <4 x i32> %136, %135
  %141 = call i32 @llvm.vector.reduce.add.v4i32(<4 x i32> %140)
  %142 = icmp eq i64 %94, %103
  br i1 %142, label %41, label %143

143:                                              ; preds = %97, %139
  %144 = phi i64 [ %91, %97 ], [ %104, %139 ]
  %145 = phi i32 [ %92, %97 ], [ %141, %139 ]
  br label %146

146:                                              ; preds = %143, %146
  %147 = phi i64 [ %157, %146 ], [ %144, %143 ]
  %148 = phi i32 [ %156, %146 ], [ %145, %143 ]
  %149 = getelementptr inbounds [15 x i32], [15 x i32]* %2, i64 0, i64 %147
  %150 = load i32, i32* %149, align 4, !tbaa !18
  %151 = shl nsw i32 %150, 1
  %152 = icmp eq i32 %99, %151
  %153 = icmp eq i32 %150, %100
  %154 = select i1 %152, i1 true, i1 %153
  %155 = zext i1 %154 to i32
  %156 = add nsw i32 %148, %155
  %157 = add nuw nsw i64 %147, 1
  %158 = icmp eq i64 %157, %31
  br i1 %158, label %41, label %146, !llvm.loop !31

159:                                              ; preds = %20, %72, %0
  call void @llvm.lifetime.end.p0i8(i64 60, i8* nonnull %4) #8
  call void @llvm.lifetime.end.p0i8(i64 4, i8* nonnull %3) #8
  ret i32 0
}

; Function Attrs: argmemonly mustprogress nofree nosync nounwind willreturn
declare void @llvm.lifetime.start.p0i8(i64 immarg, i8* nocapture) #4

declare nonnull align 8 dereferenceable(16) %"class.std::basic_istream"* @_ZNSirsERi(%"class.std::basic_istream"* nonnull align 8 dereferenceable(16), i32* nonnull align 4 dereferenceable(4)) local_unnamed_addr #0

; Function Attrs: argmemonly mustprogress nofree nosync nounwind willreturn
declare void @llvm.lifetime.end.p0i8(i64 immarg, i8* nocapture) #4

declare nonnull align 8 dereferenceable(8) %"class.std::basic_ostream"* @_ZNSolsEi(%"class.std::basic_ostream"* nonnull align 8 dereferenceable(8), i32) local_unnamed_addr #0

declare nonnull align 8 dereferenceable(8) %"class.std::basic_ostream"* @_ZNSo3putEc(%"class.std::basic_ostream"* nonnull align 8 dereferenceable(8), i8 signext) local_unnamed_addr #0

declare nonnull align 8 dereferenceable(8) %"class.std::basic_ostream"* @_ZNSo5flushEv(%"class.std::basic_ostream"* nonnull align 8 dereferenceable(8)) local_unnamed_addr #0

; Function Attrs: noreturn
declare void @_ZSt16__throw_bad_castv() local_unnamed_addr #5

declare void @_ZNKSt5ctypeIcE13_M_widen_initEv(%"class.std::ctype"* nonnull align 8 dereferenceable(570)) local_unnamed_addr #0

; Function Attrs: sspstrong uwtable
define internal void @_GLOBAL__sub_I_1370.cpp() #6 section ".text.startup" {
  tail call void @_ZNSt8ios_base4InitC1Ev(%"class.std::ios_base::Init"* nonnull align 1 dereferenceable(1) @_ZStL8__ioinit)
  %1 = tail call i32 @__cxa_atexit(void (i8*)* bitcast (void (%"class.std::ios_base::Init"*)* @_ZNSt8ios_base4InitD1Ev to void (i8*)*), i8* getelementptr inbounds (%"class.std::ios_base::Init", %"class.std::ios_base::Init"* @_ZStL8__ioinit, i64 0, i32 0), i8* nonnull @__dso_handle) #8
  ret void
}

; Function Attrs: nofree nosync nounwind readnone willreturn
declare i32 @llvm.vector.reduce.add.v4i32(<4 x i32>) #7


!llvm.module.flags = !{!0, !1, !2, !3}
!llvm.ident = !{!4}

!0 = !{i32 1, !"wchar_size", i32 4}
!1 = !{i32 7, !"PIC Level", i32 2}
!2 = !{i32 7, !"PIE Level", i32 2}
!3 = !{i32 7, !"uwtable", i32 1}
!4 = !{!"clang version 13.0.0"}
!5 = !{!6, !6, i64 0}
!6 = !{!"vtable pointer", !7, i64 0}
!7 = !{!"Simple C++ TBAA"}
!8 = !{!9, !13, i64 32}
!9 = !{!"_ZTSSt8ios_base", !10, i64 8, !10, i64 16, !12, i64 24, !13, i64 28, !13, i64 32, !14, i64 40, !15, i64 48, !11, i64 64, !16, i64 192, !14, i64 200, !17, i64 208}
!10 = !{!"long", !11, i64 0}
!11 = !{!"omnipotent char", !7, i64 0}
!12 = !{!"_ZTSSt13_Ios_Fmtflags", !11, i64 0}
!13 = !{!"_ZTSSt12_Ios_Iostate", !11, i64 0}
!14 = !{!"any pointer", !11, i64 0}
!15 = !{!"_ZTSNSt8ios_base6_WordsE", !14, i64 0, !10, i64 8}
!16 = !{!"int", !11, i64 0}
!17 = !{!"_ZTSSt6locale", !14, i64 0}
!18 = !{!16, !16, i64 0}
!19 = distinct !{!19, !20}
!20 = !{!"llvm.loop.mustprogress"}
!21 = distinct !{!21, !20}
!22 = !{!23, !14, i64 240}
!23 = !{!"_ZTSSt9basic_iosIcSt11char_traitsIcEE", !14, i64 216, !11, i64 224, !24, i64 225, !14, i64 232, !14, i64 240, !14, i64 248, !14, i64 256}
!24 = !{!"bool", !11, i64 0}
!25 = !{!26, !11, i64 56}
!26 = !{!"_ZTSSt5ctypeIcE", !14, i64 16, !24, i64 24, !14, i64 32, !14, i64 40, !14, i64 48, !11, i64 56, !11, i64 57, !11, i64 313, !11, i64 569}
!27 = !{!11, !11, i64 0}
!28 = distinct !{!28, !20}
!29 = distinct !{!29, !20, !30}
!30 = !{!"llvm.loop.isvectorized", i32 1}
!31 = distinct !{!31, !20, !32, !30}
!32 = !{!"llvm.loop.unroll.runtime.disable"}
